target datalayout = "e-m:e-p270:32:32-p271:32:32-p272:64:64-i64:64-i128:128-f80:128-n8:16:32:64-S128"
target triple = "x86_64-pc-linux-gnu"

%struct.archiver = type { ptr, ptr, i32, ptr }

@nr_archivers = internal global i32 0, align 4
@archivers = internal global ptr null, align 8

; Function Attrs: nounwind uwtable
define internal i32 @match_extension(ptr noundef %0, ptr noundef %1) #0 {
  %3 = alloca i32, align 4
  %4 = alloca ptr, align 8
  %5 = alloca ptr, align 8
  %6 = alloca i32, align 4
  %7 = alloca i32, align 4
  store ptr %0, ptr %4, align 8, !tbaa !50
  store ptr %1, ptr %5, align 8, !tbaa !50
  call void @llvm.lifetime.start.p0(i64 4, ptr %6) #11
  %8 = load ptr, ptr %4, align 8, !tbaa !50
  %9 = call i64 @strlen(ptr noundef %8) #12
  %10 = load ptr, ptr %5, align 8, !tbaa !50
  %11 = call i64 @strlen(ptr noundef %10) #12
  %12 = sub i64 %9, %11
  %13 = trunc i64 %12 to i32
  store i32 %13, ptr %6, align 4, !tbaa !9
  %14 = load i32, ptr %6, align 4, !tbaa !9
  %15 = icmp slt i32 %14, 2
  br i1 %15, label %25, label %16

16:                                               ; preds = %2
  %17 = load ptr, ptr %4, align 8, !tbaa !50
  %18 = load i32, ptr %6, align 4, !tbaa !9
  %19 = sub nsw i32 %18, 1
  %20 = sext i32 %19 to i64
  %21 = getelementptr inbounds i8, ptr %17, i64 %20
  %22 = load i8, ptr %21, align 1, !tbaa !31
  %23 = sext i8 %22 to i32
  %24 = icmp ne i32 %23, 46
  br i1 %24, label %25, label %26

25:                                               ; preds = %16, %2
  store i32 0, ptr %3, align 4
  store i32 1, ptr %7, align 4
  br label %36

26:                                               ; preds = %16
  %27 = load ptr, ptr %4, align 8, !tbaa !50
  %28 = load i32, ptr %6, align 4, !tbaa !9
  %29 = sext i32 %28 to i64
  %30 = getelementptr inbounds i8, ptr %27, i64 %29
  %31 = load ptr, ptr %5, align 8, !tbaa !50
  %32 = call i32 @strcmp(ptr noundef %30, ptr noundef %31) #12
  %33 = icmp ne i32 %32, 0
  %34 = xor i1 %33, true
  %35 = zext i1 %34 to i32
  store i32 %35, ptr %3, align 4
  store i32 1, ptr %7, align 4
  br label %36

36:                                               ; preds = %26, %25
  call void @llvm.lifetime.end.p0(i64 4, ptr %6) #11
  %37 = load i32, ptr %3, align 4
  ret i32 %37
}

; Function Attrs: nounwind uwtable
define dso_local ptr @archive_format_from_filename(ptr noundef %0) #0 {
  %2 = alloca ptr, align 8
  %3 = alloca ptr, align 8
  %4 = alloca i32, align 4
  %5 = alloca i32, align 4
  store ptr %0, ptr %3, align 8, !tbaa !50
  call void @llvm.lifetime.start.p0(i64 4, ptr %4) #11
  store i32 0, ptr %4, align 4, !tbaa !9
  br label %6

6:                                                ; preds = %30, %1
  %7 = load i32, ptr %4, align 4, !tbaa !9
  %8 = load i32, ptr @nr_archivers, align 4, !tbaa !9
  %9 = icmp slt i32 %7, %8
  br i1 %9, label %10, label %33

10:                                               ; preds = %6
  %11 = load ptr, ptr %3, align 8, !tbaa !50
  %12 = load ptr, ptr @archivers, align 8, !tbaa !11
  %13 = load i32, ptr %4, align 4, !tbaa !9
  %14 = sext i32 %13 to i64
  %15 = getelementptr inbounds ptr, ptr %12, i64 %14
  %16 = load ptr, ptr %15, align 8, !tbaa !4
  %17 = getelementptr inbounds nuw %struct.archiver, ptr %16, i32 0, i32 0
  %18 = load ptr, ptr %17, align 8, !tbaa !134
  %19 = call i32 @match_extension(ptr noundef %11, ptr noundef %18)
  %20 = icmp ne i32 %19, 0
  br i1 %20, label %21, label %29

21:                                               ; preds = %10
  %22 = load ptr, ptr @archivers, align 8, !tbaa !11
  %23 = load i32, ptr %4, align 4, !tbaa !9
  %24 = sext i32 %23 to i64
  %25 = getelementptr inbounds ptr, ptr %22, i64 %24
  %26 = load ptr, ptr %25, align 8, !tbaa !4
  %27 = getelementptr inbounds nuw %struct.archiver, ptr %26, i32 0, i32 0
  %28 = load ptr, ptr %27, align 8, !tbaa !134
  store ptr %28, ptr %2, align 8
  store i32 1, ptr %5, align 4
  br label %34

29:                                               ; preds = %10
  br label %30

30:                                               ; preds = %29
  %31 = load i32, ptr %4, align 4, !tbaa !9
  %32 = add nsw i32 %31, 1
  store i32 %32, ptr %4, align 4, !tbaa !9
  br label %6, !llvm.loop !172

33:                                               ; preds = %6
  store ptr null, ptr %2, align 8
  store i32 1, ptr %5, align 4
  br label %34

34:                                               ; preds = %33, %21
  call void @llvm.lifetime.end.p0(i64 4, ptr %4) #11
  %35 = load ptr, ptr %2, align 8
  ret ptr %35
}