; Function Attrs: nofree nounwind memory(read, inaccessiblemem: none) uwtable
define dso_local noundef ptr @archive_format_from_filename(ptr noundef readonly captures(none) %0) local_unnamed_addr #11 {
  %2 = load i32, ptr @nr_archivers, align 4, !tbaa !4
  %3 = icmp sgt i32 %2, 0
  br i1 %3, label %.lr.ph, label %match_extension.exit._crit_edge

.lr.ph:                                           ; preds = %1
  %4 = load ptr, ptr @archivers, align 8, !tbaa !8
  %5 = tail call i64 @strlen(ptr noundef nonnull readonly dereferenceable(1) %0) #21
  %wide.trip.count = zext nneg i32 %2 to i64
  br label %6

6:                                                ; preds = %.lr.ph, %match_extension.exit.thread
  %indvars.iv = phi i64 [ 0, %.lr.ph ], [ %indvars.iv.next, %match_extension.exit.thread ]
  %7 = getelementptr inbounds nuw ptr, ptr %4, i64 %indvars.iv
  %8 = load ptr, ptr %7, align 8, !tbaa !11
  %9 = load ptr, ptr %8, align 8, !tbaa !115
  %10 = tail call i64 @strlen(ptr noundef nonnull readonly dereferenceable(1) %9) #21
  %11 = sub i64 %5, %10
  %12 = trunc i64 %11 to i32
  %13 = icmp slt i32 %12, 2
  br i1 %13, label %match_extension.exit.thread, label %14

14:                                               ; preds = %6
  %15 = add i64 %11, 4294967295
  %16 = and i64 %15, 4294967295
  %17 = getelementptr inbounds nuw i8, ptr %0, i64 %16
  %18 = load i8, ptr %17, align 1, !tbaa !29
  %.not.i = icmp eq i8 %18, 46
  br i1 %.not.i, label %match_extension.exit, label %match_extension.exit.thread

match_extension.exit:                             ; preds = %14
  %19 = and i64 %11, 2147483647
  %20 = getelementptr inbounds nuw i8, ptr %0, i64 %19
  %21 = tail call i32 @strcmp(ptr noundef nonnull readonly dereferenceable(1) %20, ptr noundef nonnull readonly dereferenceable(1) %9) #21
  %.not9.i.not = icmp eq i32 %21, 0
  br i1 %.not9.i.not, label %match_extension.exit._crit_edge, label %match_extension.exit.thread

match_extension.exit.thread:                      ; preds = %6, %14, %match_extension.exit
  %indvars.iv.next = add nuw nsw i64 %indvars.iv, 1
  %exitcond.not = icmp eq i64 %indvars.iv.next, %wide.trip.count
  br i1 %exitcond.not, label %match_extension.exit._crit_edge, label %6, !llvm.loop !119

match_extension.exit._crit_edge:                  ; preds = %match_extension.exit.thread, %match_extension.exit, %1
  %.05 = phi ptr [ null, %1 ], [ %9, %match_extension.exit ], [ null, %match_extension.exit.thread ]
  ret ptr %.05
}